target datalayout = "e-m:e-p270:32:32-p271:32:32-p272:64:64-i64:64-i128:128-f80:128-n8:16:32:64-S128"
target triple = "x86_64-unknown-linux-gnu"

%struct.uv_fs_s = type { ptr, i32, [6 x ptr], i32, ptr, ptr, i64, ptr, ptr, %struct.uv_stat_t, ptr, i32, i32, i32, i32, ptr, i64, i32, i32, double, double, %struct.uv__work, [4 x %struct.uv_buf_t] }
%struct.uv_stat_t = type { i64, i64, i64, i64, i64, i64, i64, i64, i64, i64, i64, i64, %struct.uv_timespec_t, %struct.uv_timespec_t, %struct.uv_timespec_t, %struct.uv_timespec_t }
%struct.uv_timespec_t = type { i64, i64 }
%struct.uv__work = type { ptr, ptr, ptr, %struct.uv__queue }
%struct.uv__queue = type { ptr, ptr }
%struct.uv_buf_t = type { ptr, i64 }
%struct.uv_loop_s = type { ptr, i32, %struct.uv__queue, %union.anon, ptr, i32, i64, i32, %struct.uv__queue, %struct.uv__queue, ptr, i32, i32, %struct.uv__queue, %union.pthread_mutex_t, %struct.uv_async_s, %union.pthread_rwlock_t, ptr, %struct.uv__queue, %struct.uv__queue, %struct.uv__queue, %struct.uv__queue, %struct.uv__queue, ptr, %struct.uv__io_s, i32, %struct.anon, i64, i64, [2 x i32], %struct.uv__io_s, %struct.uv_signal_s, i32, %struct.uv__io_s, ptr, i32 }
%union.anon = type { ptr }
%union.pthread_mutex_t = type { %struct.__pthread_mutex_s }
%struct.__pthread_mutex_s = type { i32, i32, i32, i32, i32, i16, i16, %struct.__pthread_internal_list }
%struct.__pthread_internal_list = type { ptr, ptr }
%struct.uv_async_s = type { ptr, ptr, i32, ptr, %struct.uv__queue, %union.anon.0, ptr, i32, ptr, %struct.uv__queue, i32 }
%union.anon.0 = type { [4 x ptr] }
%union.pthread_rwlock_t = type { %struct.__pthread_rwlock_arch_t }
%struct.__pthread_rwlock_arch_t = type { i32, i32, i32, i32, i32, i32, i32, i32, i8, [7 x i8], i64, i32 }
%struct.anon = type { ptr, i32 }
%struct.uv_signal_s = type { ptr, ptr, i32, ptr, %struct.uv__queue, %union.anon.1, ptr, i32, ptr, i32, %struct.anon.2, i32, i32 }
%union.anon.1 = type { [4 x ptr] }
%struct.anon.2 = type { ptr, ptr, ptr, i32 }
%struct.uv__io_s = type { ptr, %struct.uv__queue, %struct.uv__queue, i32, i32, i32 }
%struct.uv_dir_s = type { ptr, i64, [4 x ptr], ptr }

; Function Attrs: nounwind uwtable
define i32 @uv_fs_readdir(ptr noundef %loop, ptr noundef %req, ptr noundef %dir, ptr noundef %cb) #0 {
entry:
  %retval = alloca i32, align 4
  %loop.addr = alloca ptr, align 8
  %req.addr = alloca ptr, align 8
  %dir.addr = alloca ptr, align 8
  %cb.addr = alloca ptr, align 8
  store ptr %loop, ptr %loop.addr, align 8
  store ptr %req, ptr %req.addr, align 8
  store ptr %dir, ptr %dir.addr, align 8
  store ptr %cb, ptr %cb.addr, align 8
  br label %do.body

do.body:                                          ; preds = %entry
  %0 = load ptr, ptr %req.addr, align 8
  %cmp = icmp eq ptr %0, null
  br i1 %cmp, label %if.then, label %if.end

if.then:                                          ; preds = %do.body
  store i32 -22, ptr %retval, align 4
  br label %do.end20

if.end:                                           ; preds = %do.body
  br label %do.body1

do.body1:                                         ; preds = %if.end
  %1 = load ptr, ptr %req.addr, align 8
  %type = getelementptr inbounds %struct.uv_fs_s, ptr %1, i32 0, i32 1
  store i32 6, ptr %type, align 8
  br label %do.end

do.end:                                           ; preds = %do.body1
  %2 = load ptr, ptr %req.addr, align 8
  %fs_type = getelementptr inbounds %struct.uv_fs_s, ptr %2, i32 0, i32 3
  store i32 32, ptr %fs_type, align 8
  %3 = load ptr, ptr %req.addr, align 8
  %result = getelementptr inbounds %struct.uv_fs_s, ptr %3, i32 0, i32 6
  store i64 0, ptr %result, align 8
  %4 = load ptr, ptr %req.addr, align 8
  %ptr = getelementptr inbounds %struct.uv_fs_s, ptr %4, i32 0, i32 7
  store ptr null, ptr %ptr, align 8
  %5 = load ptr, ptr %loop.addr, align 8
  %6 = load ptr, ptr %req.addr, align 8
  %loop2 = getelementptr inbounds %struct.uv_fs_s, ptr %6, i32 0, i32 4
  store ptr %5, ptr %loop2, align 8
  %7 = load ptr, ptr %req.addr, align 8
  %path = getelementptr inbounds %struct.uv_fs_s, ptr %7, i32 0, i32 8
  store ptr null, ptr %path, align 8
  %8 = load ptr, ptr %req.addr, align 8
  %new_path = getelementptr inbounds %struct.uv_fs_s, ptr %8, i32 0, i32 10
  store ptr null, ptr %new_path, align 8
  %9 = load ptr, ptr %req.addr, align 8
  %bufs = getelementptr inbounds %struct.uv_fs_s, ptr %9, i32 0, i32 15
  store ptr null, ptr %bufs, align 8
  %10 = load ptr, ptr %cb.addr, align 8
  %11 = load ptr, ptr %req.addr, align 8
  %cb3 = getelementptr inbounds %struct.uv_fs_s, ptr %11, i32 0, i32 5
  store ptr %10, ptr %cb3, align 8
  br label %do.end4

do.end4:                                          ; preds = %do.end
  %12 = load ptr, ptr %dir.addr, align 8
  %cmp5 = icmp eq ptr %12, null
  br i1 %cmp5, label %if.then10, label %lor.lhs.false

lor.lhs.false:                                    ; preds = %do.end4
  %13 = load ptr, ptr %dir.addr, align 8
  %dir6 = getelementptr inbounds %struct.uv_dir_s, ptr %13, i32 0, i32 3
  %14 = load ptr, ptr %dir6, align 8
  %cmp7 = icmp eq ptr %14, null
  br i1 %cmp7, label %if.then10, label %lor.lhs.false8

lor.lhs.false8:                                   ; preds = %lor.lhs.false
  %15 = load ptr, ptr %dir.addr, align 8
  %dirents = getelementptr inbounds %struct.uv_dir_s, ptr %15, i32 0, i32 0
  %16 = load ptr, ptr %dirents, align 8
  %cmp9 = icmp eq ptr %16, null
  br i1 %cmp9, label %if.then10, label %if.end11

if.then10:                                        ; preds = %lor.lhs.false8, %lor.lhs.false, %do.end4
  store i32 -22, ptr %retval, align 4
  br label %do.end20

if.end11:                                         ; preds = %lor.lhs.false8
  %17 = load ptr, ptr %dir.addr, align 8
  %18 = load ptr, ptr %req.addr, align 8
  %ptr12 = getelementptr inbounds %struct.uv_fs_s, ptr %18, i32 0, i32 7
  store ptr %17, ptr %ptr12, align 8
  br label %do.body13

do.body13:                                        ; preds = %if.end11
  %19 = load ptr, ptr %cb.addr, align 8
  %cmp14 = icmp ne ptr %19, null
  br i1 %cmp14, label %if.then15, label %if.else

if.then15:                                        ; preds = %do.body13
  br label %do.body16

do.body16:                                        ; preds = %if.then15
  %20 = load ptr, ptr %loop.addr, align 8
  %active_reqs = getelementptr inbounds %struct.uv_loop_s, ptr %20, i32 0, i32 3
  %21 = load i32, ptr %active_reqs, align 8
  %inc = add i32 %21, 1
  store i32 %inc, ptr %active_reqs, align 8
  br label %do.end17

do.end17:                                         ; preds = %do.body16
  %22 = load ptr, ptr %loop.addr, align 8
  %23 = load ptr, ptr %req.addr, align 8
  %work_req = getelementptr inbounds %struct.uv_fs_s, ptr %23, i32 0, i32 21
  call void @uv__work_submit(ptr noundef %22, ptr noundef %work_req, i32 noundef 1, ptr noundef @uv__fs_work, ptr noundef @uv__fs_done)
  store i32 0, ptr %retval, align 4
  br label %do.end20

if.else:                                          ; preds = %do.body13
  %24 = load ptr, ptr %req.addr, align 8
  %work_req18 = getelementptr inbounds %struct.uv_fs_s, ptr %24, i32 0, i32 21
  call void @uv__fs_work(ptr noundef %work_req18)
  %25 = load ptr, ptr %req.addr, align 8
  %result19 = getelementptr inbounds %struct.uv_fs_s, ptr %25, i32 0, i32 6
  %26 = load i64, ptr %result19, align 8
  %conv = trunc i64 %26 to i32
  store i32 %conv, ptr %retval, align 4
  br label %do.end20

do.end20:                                         ; preds = %if.else, %do.end17, %if.then10, %if.then
  %27 = load i32, ptr %retval, align 4
  ret i32 %27
}