; Function Attrs: nounwind uwtable
define i32 @uv_fs_readdir(ptr noundef %loop, ptr noundef %req, ptr noundef %dir, ptr noundef %cb) local_unnamed_addr #0 {
entry:
  %cmp = icmp eq ptr %req, null
  br i1 %cmp, label %do.end20, label %do.body1

do.body1:                                         ; preds = %entry
  %type = getelementptr inbounds nuw i8, ptr %req, i64 8
  store i32 6, ptr %type, align 8
  %fs_type = getelementptr inbounds nuw i8, ptr %req, i64 64
  store i32 32, ptr %fs_type, align 8
  %result = getelementptr inbounds nuw i8, ptr %req, i64 88
  %ptr = getelementptr inbounds nuw i8, ptr %req, i64 96
  %loop2 = getelementptr inbounds nuw i8, ptr %req, i64 72
  tail call void @llvm.memset.p0.i64(ptr noundef nonnull align 8 dereferenceable(16) %result, i8 0, i64 16, i1 false)
  store ptr %loop, ptr %loop2, align 8
  %path = getelementptr inbounds nuw i8, ptr %req, i64 104
  store ptr null, ptr %path, align 8
  %new_path = getelementptr inbounds nuw i8, ptr %req, i64 272
  store ptr null, ptr %new_path, align 8
  %bufs = getelementptr inbounds nuw i8, ptr %req, i64 296
  store ptr null, ptr %bufs, align 8
  %cb3 = getelementptr inbounds nuw i8, ptr %req, i64 80
  store ptr %cb, ptr %cb3, align 8
  %cmp5 = icmp eq ptr %dir, null
  br i1 %cmp5, label %do.end20, label %lor.lhs.false

lor.lhs.false:                                    ; preds = %do.body1
  %dir6 = getelementptr inbounds nuw i8, ptr %dir, i64 48
  %0 = load ptr, ptr %dir6, align 8
  %cmp7 = icmp eq ptr %0, null
  br i1 %cmp7, label %do.end20, label %lor.lhs.false8

lor.lhs.false8:                                   ; preds = %lor.lhs.false
  %1 = load ptr, ptr %dir, align 8
  %cmp9 = icmp eq ptr %1, null
  br i1 %cmp9, label %do.end20, label %if.end11

if.end11:                                         ; preds = %lor.lhs.false8
  store ptr %dir, ptr %ptr, align 8
  %cmp14.not = icmp eq ptr %cb, null
  br i1 %cmp14.not, label %if.else, label %do.body16

do.body16:                                        ; preds = %if.end11
  %active_reqs = getelementptr inbounds nuw i8, ptr %loop, i64 32
  %2 = load i32, ptr %active_reqs, align 8
  %inc = add i32 %2, 1
  store i32 %inc, ptr %active_reqs, align 8
  %work_req = getelementptr inbounds nuw i8, ptr %req, i64 336
  tail call void @uv__work_submit(ptr noundef %loop, ptr noundef nonnull %work_req, i32 noundef 1, ptr noundef nonnull @uv__fs_work, ptr noundef nonnull @uv__fs_done) #15
  br label %do.end20

if.else:                                          ; preds = %if.end11
  %work_req18 = getelementptr inbounds nuw i8, ptr %req, i64 336
  tail call void @uv__fs_work(ptr noundef nonnull %work_req18)
  %3 = load i64, ptr %result, align 8
  %conv = trunc i64 %3 to i32
  br label %do.end20

do.end20:                                         ; preds = %do.body1, %lor.lhs.false, %lor.lhs.false8, %entry, %if.else, %do.body16
  %retval.0 = phi i32 [ 0, %do.body16 ], [ %conv, %if.else ], [ -22, %entry ], [ -22, %lor.lhs.false8 ], [ -22, %lor.lhs.false ], [ -22, %do.body1 ]
  ret i32 %retval.0
}